(lp1
cnumpy.core.multiarray
_reconstruct
p2
(cnumpy
ndarray
p3
(I0
tS'b'
tRp4
(I1
(I41
tcnumpy
dtype
p5
(S'f8'
I0
I1
tRp6
(I3
S'<'
NNNI-1
I-1
I0
tbI00
S"\xfc\xa9\xf1\xd2Mbp?\xae\xd8_vO\x1ev?\x92\xcb\x7fH\xbf}}?a2U0*\xa9\x83?\xb3{\xf2\xb0Pk\x8a?e\x19\xe2X\x17\xb7\x91?\xe0\x9c\x11\xa5\xbd\xc1\x97?\xdeq\x8a\x8e\xe4\xf2\x9f?\xd7\x12\xf2A\xcff\xa5?y\xe9&1\x08\xac\xac?U\xc1\xa8\xa4N@\xb3? \xd2o_\x07\xce\xb9?X\xa85\xcd;N\xc1?\xf7\xe4a\xa1\xd64\xc7?=,\xd4\x9a\xe6\x1d\xcf?w\xbe\x9f\x1a/\xdd\xd4?\xef8EGr\xf9\xdb?RI\x9d\x80&\xc2\xe2?\xd6V\xec/\xbb'\xe9?\xe8j+\xf6\x97\xdd\xf0?u\x02\x9a\x08\x1b\x9e\xf6?io\xf0\x85\xc9T\xfe?\xf5JY\x868V\x04@\x12\x83\xc0\xca\xa1E\x0b@\xf0\xa7\xc6K7I\x12@\xf6\x97\xdd\x93\x87\x85\x18@p_\x07\xce\x19q @\xea\x95\xb2\x0cq\x0c&@\x1a\xc0[ A\x91-@\xfa\xed\xeb\xc09\xd33@gDio\xf0\x95:@\xcff\xd5\xe7j\xd3A@\x8fSt$\x97\xe7G@H\xbf}\x1d8\x07P@\xa6\nF%u~U@\xb4Y\xf5\xb9\xda\xd2\\@o\x81\x04\xc5\x8fSc@\x82\xe2\xc7\x98\xbb\xeai@\x08=\x9bU\x9f`q@{\x83/L\xa6Mw@\x9a\x99\x99\x99\x99A\x7f@"
tba(lp7
F40912.130535097582
aF73729.710439992021
aF129443.27633229127
aF226848.54414143212
aF402857.36551895418
aF711289.36998736975
aF1253342.3820882537
aF2216179.2071017968
aF3882756.6277407021
aF6789394.3616633201
aF11902379.281096105
aF20754210.269110687
aF36162470.129257828
aF62860250.793019652
aF109032123.6017842
aF188760646.29509756
aF325980867.78343922
aF561906572.54670477
aF966080770.16145492
aF1656430657.6062775
aF2832542905.7304335
aF4828729631.2378998
aF8203027020.6016979
aF13883339691.892405
aF23397488226.267826
aF39242856151.717827
aF65459865739.859276
aF108503957635.76657
aF178529055995.14523
aF291191161593.84528
aF470002778453.46143
aF749019206170.73401
aF1175068956388.0938
aF1807537316019.1921
aF2711729621405.1934
aF3939419656992.9873
aF5490058198148.8447
aF7258486521862.6885
aF9023976978246.4609
aF10637607680308.781
aF12172283407513.057
aa(lp8
F3951.3462893758551
aF7117.3671814239333
aF12488.555541126303
aF21871.854890818253
aF38812.08196832188
aF68467.469433966078
aF120526.2784905447
aF212880.14794603779
aF372512.62271315494
aF650497.41691445652
aF1138664.7218307774
aF1982229.9944334745
aF3447615.1252917978
aF5980978.7606820147
aF10351432.35142809
aF17877693.436226889
aF30792143.832667194
aF52922213.037143707
aF90693489.92676869
aF154941224.66163129
aF263886661.87581912
aF447823063.15307808
aF756879883.51292598
aF1273569467.6496079
aF2132098541.1108732
aF3548617530.5983114
aF5866472158.2442036
aF9621624280.9228039
aF15631920111.218559
aF25107681942.497295
aF39763692036.955414
aF61872687440.667282
aF94122680676.079773
aF139001834868.26117
aF197253841348.85245
aF264871968825.43988
aF328734290293.15015
aF364139385512.80072
aF347022038264.18567
aF310229765403.24774
aF398436166822.14209
aa.