(lp1
cnumpy.core.multiarray
_reconstruct
p2
(cnumpy
ndarray
p3
(I0
tS'b'
tRp4
(I1
(I38
tcnumpy
dtype
p5
(S'f8'
I0
I1
tRp6
(I3
S'<'
NNNI-1
I-1
I0
tbI00
S'a2U0*\xa9\x93?c\xeeZB>\xe8\x99?\xb1\xe1\xe9\x95\xb2\x0c\xa1?w-!\x1f\xf4l\xa6?\xb4Y\xf5\xb9\xda\x8a\xad?\xca2\xc4\xb1.n\xb3?\x89\xd2\xde\xe0\x0b\x93\xb9?\xa2E\xb6\xf3\xfd\xd4\xc0?G\x03x\x0b$(\xc6?@\x13a\xc3\xd3+\xcd?o\x81\x04\xc5\x8f1\xd3?\xbf}\x1d8gD\xd9?\x1b\r\xe0-\x90\xa0\xe0?4\x80\xb7@\x82\xe2\xe5?\x91~\xfb:p\xce\xec?\x85|\xd0\xb3Y\xf5\xf2?\xc1\xca\xa1E\xb6\xf3\xf8?]\xfeC\xfa\xedk\x00@\xcc\x7fH\xbf}\x9d\x05@O\x1e\x16jMs\x0c@\xb7b\x7f\xd9=\xb9\x12@\xdb\x8a\xfde\xf7\xa4\x18@d]\xdcF\x038 @~\x8c\xb9k\tY%@\xb7b\x7f\xd9=\x19,@\x92\\\xfeC\xfa}2@\x10\xe9\xb7\xaf\x03W8@x\x9c\xa2#\xb9\x04@@\xcc\x7fH\xbf}\x15E@\x7f\xd9=yX\xc0K@\xc19#J{CR@\x0bF%u\x02\nX@j\xbct\x93\x18\xa4_@t\xb5\x15\xfb\xcb\xd2d@j\xdeq\x8a\x8ehk@b\x10X9\xb4\tr@\x82sF\x94\xf6\xbdw@\x9a\x99\x99\x99\x99A\x7f@'
tba(lp7
F2306420.3983259578
aF3955245.2436421961
aF6754559.0049082041
aF11496613.248399962
aF19585359.556315012
aF33199605.127570927
aF56219060.870582744
aF95004661.478930339
aF160198190.92464632
aF269607788.78195882
aF452277520.53003091
aF757491571.60589123
aF1265031868.7555461
aF2107660660.7703953
aF3502755187.1964936
aF5805197265.9816475
aF9591366813.3123665
aF15799473448.275301
aF25937370570.249641
aF42418411900.48526
aF69084864770.312057
aF111992835903.28639
aF180600577164.77402
aF289498836317.33997
aF460843465901.13104
aF727660906058.87549
aF1137938815900.8123
aF1759031007871.5354
aF2680953182125.8013
aF4015218533139.6382
aF5882865549615.9922
aF8381561988645.0811
aF11520239610255.711
aF15121875861590.07
aF18751218302688.902
aF21878411119586.316
aF24705423803614.824
aF28464872849839.066
aa(lp8
F351805.80586288229
aF602982.0329032084
aF1029094.2477367396
aF1750299.8187478392
aF2979266.5724619334
aF5045420.6605238942
aF8534527.8889863994
aF14405015.472789437
aF24256956.458291959
aF40761708.331786104
aF68264218.088157952
aF114117277.62245069
aF190182660.14207816
aF316129354.43229055
aF524028148.05960029
aF865990456.2566638
aF1426197839.6774802
aF2340843085.7923822
aF3827225914.8780708
aF6230202636.1324739
aF10093316654.881849
aF16262871113.972662
aF26040858899.908413
aF41398057709.948654
aF65254371224.454819
aF101821475792.6888
aF156942760574.71539
aF238272233063.63196
aF354938291160.53772
aF515987596635.66992
aF726424331163.51843
aF979247188856.69861
aF1242453555345.2302
aF1444364455904.8521
aF1475831865565.1099
aF1265431604093.6882
aF1029972745894.8865
aF1412333730120.4438
aa.